target datalayout = "e-m:e-p270:32:32-p271:32:32-p272:64:64-i64:64-i128:128-f80:128-n8:16:32:64-S128"
target triple = "x86_64-pc-linux-gnu"

%"class.clang::QualType" = type { %"class.llvm::PointerIntPair.4" }
%"class.llvm::PointerIntPair.4" = type { %"struct.llvm::detail::PunnedPointer.5" }
%"struct.llvm::detail::PunnedPointer.5" = type { [8 x i8] }
%"class.llvm::FoldingSetBase::Node" = type { ptr }
%"class.llvm::FoldingSetBase" = type { ptr, i32, i32 }
%"class.clang::ento::BugReporterVisitor" = type { ptr, %"class.llvm::FoldingSetBase::Node" }
%"class.llvm::SmallPtrSet.823" = type { %"class.llvm::SmallPtrSetImpl.base.825", [32 x ptr] }
%"class.llvm::SmallPtrSetImpl.base.825" = type { %"class.llvm::SmallPtrSetImplBase.base" }
%"class.llvm::SmallPtrSetImplBase.base" = type <{ ptr, ptr, i32, i32, i32 }>
%"class.clang::ProgramPoint" = type { ptr, %"class.llvm::PointerIntPair.816", %"class.llvm::PointerIntPair.818", %"class.llvm::PointerIntPair.820", %"class.clang::CFGBlock::ElementRefImpl" }
%"class.llvm::PointerIntPair.816" = type { %"struct.llvm::detail::PunnedPointer.817" }
%"struct.llvm::detail::PunnedPointer.817" = type { [8 x i8] }
%"class.llvm::PointerIntPair.818" = type { %"struct.llvm::detail::PunnedPointer.819" }
%"struct.llvm::detail::PunnedPointer.819" = type { [8 x i8] }
%"class.llvm::PointerIntPair.820" = type { %"struct.llvm::detail::PunnedPointer.821" }
%"struct.llvm::detail::PunnedPointer.821" = type { [8 x i8] }
%"class.clang::CFGBlock::ElementRefImpl" = type { ptr, i64 }
%"class.clang::ento::ExplodedNode" = type { %"class.llvm::FoldingSetBase::Node", %"class.clang::ProgramPoint", %"class.llvm::IntrusiveRefCntPtr.822", %"class.clang::ento::ExplodedNode::NodeGroup", %"class.clang::ento::ExplodedNode::NodeGroup", i64 }
%"class.llvm::IntrusiveRefCntPtr.822" = type { ptr }
%"class.clang::ento::ExplodedNode::NodeGroup" = type { i64 }
%"class.clang::ento::ProgramStateManager" = type { ptr, %"class.clang::ento::EnvironmentManager", %"class.std::unique_ptr.851", %"class.std::unique_ptr.859", %"class.llvm::ImmutableMap<void *, void *>::Factory", %"class.llvm::DenseMap.876", %"class.llvm::FoldingSet.879", %"class.std::unique_ptr.881", %"class.std::unique_ptr.889", ptr, %"class.std::vector.897" }
%"class.clang::ento::EnvironmentManager" = type { %"class.llvm::ImmutableMap<clang::ento::EnvironmentEntry, clang::ento::SVal>::Factory" }
%"class.llvm::ImmutableMap<clang::ento::EnvironmentEntry, clang::ento::SVal>::Factory" = type <{ %"class.llvm::ImutAVLFactory", i8, [7 x i8] }>
%"class.llvm::ImutAVLFactory" = type { %"class.llvm::DenseMap.843", i64, %"class.std::vector.846", %"class.std::vector.846" }
%"class.llvm::DenseMap.843" = type <{ ptr, i32, i32, i32, [4 x i8] }>
%"class.std::vector.846" = type { %"struct.std::_Vector_base.847" }
%"struct.std::_Vector_base.847" = type { %"struct.std::_Vector_base<llvm::ImutAVLTree<llvm::ImutKeyValueInfo<clang::ento::EnvironmentEntry, clang::ento::SVal>> *, std::allocator<llvm::ImutAVLTree<llvm::ImutKeyValueInfo<clang::ento::EnvironmentEntry, clang::ento::SVal>> *>>::_Vector_impl" }
%"struct.std::_Vector_base<llvm::ImutAVLTree<llvm::ImutKeyValueInfo<clang::ento::EnvironmentEntry, clang::ento::SVal>> *, std::allocator<llvm::ImutAVLTree<llvm::ImutKeyValueInfo<clang::ento::EnvironmentEntry, clang::ento::SVal>> *>>::_Vector_impl" = type { %"struct.std::_Vector_base<llvm::ImutAVLTree<llvm::ImutKeyValueInfo<clang::ento::EnvironmentEntry, clang::ento::SVal>> *, std::allocator<llvm::ImutAVLTree<llvm::ImutKeyValueInfo<clang::ento::EnvironmentEntry, clang::ento::SVal>> *>>::_Vector_impl_data" }
%"struct.std::_Vector_base<llvm::ImutAVLTree<llvm::ImutKeyValueInfo<clang::ento::EnvironmentEntry, clang::ento::SVal>> *, std::allocator<llvm::ImutAVLTree<llvm::ImutKeyValueInfo<clang::ento::EnvironmentEntry, clang::ento::SVal>> *>>::_Vector_impl_data" = type { ptr, ptr, ptr }
%"class.std::unique_ptr.851" = type { %"struct.std::__uniq_ptr_data.852" }
%"struct.std::__uniq_ptr_data.852" = type { %"class.std::__uniq_ptr_impl.853" }
%"class.std::__uniq_ptr_impl.853" = type { %"class.std::tuple.854" }
%"class.std::tuple.854" = type { %"struct.std::_Tuple_impl.855" }
%"struct.std::_Tuple_impl.855" = type { %"struct.std::_Head_base.858" }
%"struct.std::_Head_base.858" = type { ptr }
%"class.std::unique_ptr.859" = type { %"struct.std::__uniq_ptr_data.860" }
%"struct.std::__uniq_ptr_data.860" = type { %"class.std::__uniq_ptr_impl.861" }
%"class.std::__uniq_ptr_impl.861" = type { %"class.std::tuple.862" }
%"class.std::tuple.862" = type { %"struct.std::_Tuple_impl.863" }
%"struct.std::_Tuple_impl.863" = type { %"struct.std::_Head_base.866" }
%"struct.std::_Head_base.866" = type { ptr }
%"class.llvm::ImmutableMap<void *, void *>::Factory" = type <{ %"class.llvm::ImutAVLFactory.867", i8, [7 x i8] }>
%"class.llvm::ImutAVLFactory.867" = type { %"class.llvm::DenseMap.868", i64, %"class.std::vector.871", %"class.std::vector.871" }
%"class.llvm::DenseMap.868" = type <{ ptr, i32, i32, i32, [4 x i8] }>
%"class.std::vector.871" = type { %"struct.std::_Vector_base.872" }
%"struct.std::_Vector_base.872" = type { %"struct.std::_Vector_base<llvm::ImutAVLTree<llvm::ImutKeyValueInfo<void *, void *>> *, std::allocator<llvm::ImutAVLTree<llvm::ImutKeyValueInfo<void *, void *>> *>>::_Vector_impl" }
%"struct.std::_Vector_base<llvm::ImutAVLTree<llvm::ImutKeyValueInfo<void *, void *>> *, std::allocator<llvm::ImutAVLTree<llvm::ImutKeyValueInfo<void *, void *>> *>>::_Vector_impl" = type { %"struct.std::_Vector_base<llvm::ImutAVLTree<llvm::ImutKeyValueInfo<void *, void *>> *, std::allocator<llvm::ImutAVLTree<llvm::ImutKeyValueInfo<void *, void *>> *>>::_Vector_impl_data" }
%"struct.std::_Vector_base<llvm::ImutAVLTree<llvm::ImutKeyValueInfo<void *, void *>> *, std::allocator<llvm::ImutAVLTree<llvm::ImutKeyValueInfo<void *, void *>> *>>::_Vector_impl_data" = type { ptr, ptr, ptr }
%"class.llvm::DenseMap.876" = type <{ ptr, i32, i32, i32, [4 x i8] }>
%"class.llvm::FoldingSet.879" = type { %"class.llvm::FoldingSetImpl.880" }
%"class.llvm::FoldingSetImpl.880" = type { %"class.llvm::FoldingSetBase" }
%"class.std::unique_ptr.881" = type { %"struct.std::__uniq_ptr_data.882" }
%"struct.std::__uniq_ptr_data.882" = type { %"class.std::__uniq_ptr_impl.883" }
%"class.std::__uniq_ptr_impl.883" = type { %"class.std::tuple.884" }
%"class.std::tuple.884" = type { %"struct.std::_Tuple_impl.885" }
%"struct.std::_Tuple_impl.885" = type { %"struct.std::_Head_base.888" }
%"struct.std::_Head_base.888" = type { ptr }
%"class.std::unique_ptr.889" = type { %"struct.std::__uniq_ptr_data.890" }
%"struct.std::__uniq_ptr_data.890" = type { %"class.std::__uniq_ptr_impl.891" }
%"class.std::__uniq_ptr_impl.891" = type { %"class.std::tuple.892" }
%"class.std::tuple.892" = type { %"struct.std::_Tuple_impl.893" }
%"struct.std::_Tuple_impl.893" = type { %"struct.std::_Head_base.896" }
%"struct.std::_Head_base.896" = type { ptr }
%"class.std::vector.897" = type { %"struct.std::_Vector_base.898" }
%"struct.std::_Vector_base.898" = type { %"struct.std::_Vector_base<clang::ento::ProgramState *, std::allocator<clang::ento::ProgramState *>>::_Vector_impl" }
%"struct.std::_Vector_base<clang::ento::ProgramState *, std::allocator<clang::ento::ProgramState *>>::_Vector_impl" = type { %"struct.std::_Vector_base<clang::ento::ProgramState *, std::allocator<clang::ento::ProgramState *>>::_Vector_impl_data" }
%"struct.std::_Vector_base<clang::ento::ProgramState *, std::allocator<clang::ento::ProgramState *>>::_Vector_impl_data" = type { ptr, ptr, ptr }
%"class.clang::ento::DefinedOrUnknownSVal.base" = type { %"class.clang::ento::SVal.base" }
%"class.clang::ento::SVal.base" = type <{ ptr, i8 }>
%"class.clang::ento::Loc" = type { %"class.clang::ento::DefinedSVal.base", [7 x i8] }
%"class.clang::ento::DefinedSVal.base" = type { %"class.clang::ento::DefinedOrUnknownSVal.base" }
%"class.clang::ento::SVal" = type <{ ptr, i8, [7 x i8] }>
%"class.clang::ento::ProgramState" = type { %"class.llvm::FoldingSetBase::Node", ptr, %"class.clang::ento::Environment", ptr, %"class.llvm::ImmutableMap.939", i8, i32 }
%"class.clang::ento::Environment" = type { %"class.llvm::ImmutableMap" }
%"class.llvm::ImmutableMap" = type { %"class.llvm::IntrusiveRefCntPtr.938" }
%"class.llvm::IntrusiveRefCntPtr.938" = type { ptr }
%"class.llvm::ImmutableMap.939" = type { %"class.llvm::IntrusiveRefCntPtr.940" }
%"class.llvm::IntrusiveRefCntPtr.940" = type { ptr }
%"class.clang::ento::loc::MemRegionVal" = type { %"class.clang::ento::Loc.base", [7 x i8] }
%"class.clang::ento::Loc.base" = type { %"class.clang::ento::DefinedSVal.base" }
%"class.(anonymous namespace)::NoStoreFuncVisitor" = type { %"class.clang::ento::NoStateChangeFuncVisitor.base", ptr, ptr, ptr, ptr }
%"class.clang::ento::NoStateChangeFuncVisitor.base" = type <{ %"class.clang::ento::BugReporterVisitor", %"class.llvm::SmallPtrSet.823", %"class.llvm::SmallPtrSet.823", i32 }>

; Function Attrs: mustprogress nounwind uwtable
define linkonce_odr hidden noundef nonnull align 8 dereferenceable(8) ptr @_ZNSt10_Head_baseILm0EPN5clang4ento12StoreManagerELb0EE7_M_headERKS4_(ptr noundef nonnull align 8 dereferenceable(8) %0) #0 comdat align 2 {
  %2 = alloca ptr, align 8
  store ptr %0, ptr %2, align 8
  %3 = load ptr, ptr %2, align 8
  %4 = getelementptr inbounds nuw %"struct.std::_Head_base.858", ptr %3, i32 0, i32 0
  ret ptr %4
}

; Function Attrs: mustprogress nounwind uwtable
define linkonce_odr hidden noundef nonnull align 8 dereferenceable(8) ptr @_ZNSt11_Tuple_implILm0EJPN5clang4ento12StoreManagerESt14default_deleteIS2_EEE7_M_headERKS6_(ptr noundef nonnull align 8 dereferenceable(8) %0) #0 comdat align 2 {
  %2 = alloca ptr, align 8
  store ptr %0, ptr %2, align 8
  %3 = load ptr, ptr %2, align 8
  %4 = call noundef nonnull align 8 dereferenceable(8) ptr @_ZNSt10_Head_baseILm0EPN5clang4ento12StoreManagerELb0EE7_M_headERKS4_(ptr noundef nonnull align 8 dereferenceable(8) %3) #15
  ret ptr %4
}

; Function Attrs: mustprogress nounwind uwtable
define linkonce_odr hidden void @_ZN5clang4ento4SValC2ENS1_8SValKindEPKv(ptr noundef nonnull align 8 dereferenceable(9) %0, i8 noundef zeroext %1, ptr noundef %2) unnamed_addr #0 comdat align 2 {
  %4 = alloca ptr, align 8
  %5 = alloca i8, align 1
  %6 = alloca ptr, align 8
  store ptr %0, ptr %4, align 8
  store i8 %1, ptr %5, align 1
  store ptr %2, ptr %6, align 8
  %7 = load ptr, ptr %4, align 8
  %8 = getelementptr inbounds nuw %"class.clang::ento::SVal", ptr %7, i32 0, i32 0
  %9 = load ptr, ptr %6, align 8
  store ptr %9, ptr %8, align 8
  %10 = getelementptr inbounds nuw %"class.clang::ento::SVal", ptr %7, i32 0, i32 1
  %11 = load i8, ptr %5, align 1
  store i8 %11, ptr %10, align 8
  ret void
}

; Function Attrs: mustprogress nounwind uwtable
define linkonce_odr noundef nonnull align 8 dereferenceable(8) ptr @_ZSt12__get_helperILm0EPN5clang4ento12StoreManagerEJSt14default_deleteIS2_EEERKT0_RKSt11_Tuple_implIXT_EJS6_DpT1_EE(ptr noundef nonnull align 8 dereferenceable(8) %0) #0 comdat {
  %2 = alloca ptr, align 8
  store ptr %0, ptr %2, align 8
  %3 = load ptr, ptr %2, align 8
  %4 = call noundef nonnull align 8 dereferenceable(8) ptr @_ZNSt11_Tuple_implILm0EJPN5clang4ento12StoreManagerESt14default_deleteIS2_EEE7_M_headERKS6_(ptr noundef nonnull align 8 dereferenceable(8) %3) #15
  ret ptr %4
}

; Function Attrs: mustprogress nounwind uwtable
define linkonce_odr hidden void @_ZN5clang4ento20DefinedOrUnknownSValC2ENS0_4SVal8SValKindEPKv(ptr noundef nonnull align 8 dereferenceable(9) %0, i8 noundef zeroext %1, ptr noundef %2) unnamed_addr #0 comdat align 2 {
  %4 = alloca ptr, align 8
  %5 = alloca i8, align 1
  %6 = alloca ptr, align 8
  store ptr %0, ptr %4, align 8
  store i8 %1, ptr %5, align 1
  store ptr %2, ptr %6, align 8
  %7 = load ptr, ptr %4, align 8
  %8 = load i8, ptr %5, align 1
  %9 = load ptr, ptr %6, align 8
  call void @_ZN5clang4ento4SValC2ENS1_8SValKindEPKv(ptr noundef nonnull align 8 dereferenceable(9) %7, i8 noundef zeroext %8, ptr noundef %9)
  ret void
}

; Function Attrs: mustprogress nounwind uwtable
define linkonce_odr noundef nonnull align 8 dereferenceable(8) ptr @_ZSt3getILm0EJPN5clang4ento12StoreManagerESt14default_deleteIS2_EEERKNSt13tuple_elementIXT_ESt5tupleIJDpT0_EEE4typeERKSA_(ptr noundef nonnull align 8 dereferenceable(8) %0) #0 comdat {
  %2 = alloca ptr, align 8
  store ptr %0, ptr %2, align 8
  %3 = load ptr, ptr %2, align 8
  %4 = call noundef nonnull align 8 dereferenceable(8) ptr @_ZSt12__get_helperILm0EPN5clang4ento12StoreManagerEJSt14default_deleteIS2_EEERKT0_RKSt11_Tuple_implIXT_EJS6_DpT1_EE(ptr noundef nonnull align 8 dereferenceable(8) %3) #15
  ret ptr %4
}

; Function Attrs: mustprogress nounwind uwtable
define linkonce_odr hidden void @_ZN5clang4ento11DefinedSValC2ENS0_4SVal8SValKindEPKv(ptr noundef nonnull align 8 dereferenceable(9) %0, i8 noundef zeroext %1, ptr noundef %2) unnamed_addr #0 comdat align 2 {
  %4 = alloca ptr, align 8
  %5 = alloca i8, align 1
  %6 = alloca ptr, align 8
  store ptr %0, ptr %4, align 8
  store i8 %1, ptr %5, align 1
  store ptr %2, ptr %6, align 8
  %7 = load ptr, ptr %4, align 8
  %8 = load i8, ptr %5, align 1
  %9 = load ptr, ptr %6, align 8
  call void @_ZN5clang4ento20DefinedOrUnknownSValC2ENS0_4SVal8SValKindEPKv(ptr noundef nonnull align 8 dereferenceable(9) %7, i8 noundef zeroext %8, ptr noundef %9)
  ret void
}

; Function Attrs: mustprogress nounwind uwtable
define linkonce_odr hidden noundef ptr @_ZNKSt15__uniq_ptr_implIN5clang4ento12StoreManagerESt14default_deleteIS2_EE6_M_ptrEv(ptr noundef nonnull align 8 dereferenceable(8) %0) #0 comdat align 2 {
  %2 = alloca ptr, align 8
  store ptr %0, ptr %2, align 8
  %3 = load ptr, ptr %2, align 8
  %4 = getelementptr inbounds nuw %"class.std::__uniq_ptr_impl.853", ptr %3, i32 0, i32 0
  %5 = call noundef nonnull align 8 dereferenceable(8) ptr @_ZSt3getILm0EJPN5clang4ento12StoreManagerESt14default_deleteIS2_EEERKNSt13tuple_elementIXT_ESt5tupleIJDpT0_EEE4typeERKSA_(ptr noundef nonnull align 8 dereferenceable(8) %4) #15
  %6 = load ptr, ptr %5, align 8
  ret ptr %6
}

; Function Attrs: mustprogress nounwind uwtable
define linkonce_odr hidden noundef nonnull align 8 dereferenceable(8) ptr @_ZN4llvm6detail13PunnedPointerINS_12PointerUnionIJPKN5clang4TypeEPKNS3_8ExtQualsEEEEEaSEl(ptr noundef nonnull align 8 dereferenceable(8) %0, i64 noundef %1) #0 comdat align 2 {
  %3 = alloca ptr, align 8
  %4 = alloca i64, align 8
  store ptr %0, ptr %3, align 8
  store i64 %1, ptr %4, align 8
  %5 = load ptr, ptr %3, align 8
  %6 = getelementptr inbounds nuw %"struct.llvm::detail::PunnedPointer.5", ptr %5, i32 0, i32 0
  %7 = getelementptr inbounds [8 x i8], ptr %6, i64 0, i64 0
  call void @llvm.memcpy.p0.p0.i64(ptr align 8 %7, ptr align 8 %4, i64 8, i1 false)
  ret ptr %5
}

; Function Attrs: mustprogress nounwind uwtable
define linkonce_odr hidden void @_ZN5clang4ento3LocC2ENS0_4SVal8SValKindEPKv(ptr noundef nonnull align 8 dereferenceable(9) %0, i8 noundef zeroext %1, ptr noundef %2) unnamed_addr #0 comdat align 2 {
  %4 = alloca ptr, align 8
  %5 = alloca i8, align 1
  %6 = alloca ptr, align 8
  store ptr %0, ptr %4, align 8
  store i8 %1, ptr %5, align 1
  store ptr %2, ptr %6, align 8
  %7 = load ptr, ptr %4, align 8
  %8 = load i8, ptr %5, align 1
  %9 = load ptr, ptr %6, align 8
  call void @_ZN5clang4ento11DefinedSValC2ENS0_4SVal8SValKindEPKv(ptr noundef nonnull align 8 dereferenceable(9) %7, i8 noundef zeroext %8, ptr noundef %9)
  ret void
}

; Function Attrs: mustprogress nounwind uwtable
define linkonce_odr hidden noundef ptr @_ZNKSt10unique_ptrIN5clang4ento12StoreManagerESt14default_deleteIS2_EE3getEv(ptr noundef nonnull align 8 dereferenceable(8) %0) #0 comdat align 2 {
  %2 = alloca ptr, align 8
  store ptr %0, ptr %2, align 8
  %3 = load ptr, ptr %2, align 8
  %4 = getelementptr inbounds nuw %"class.std::unique_ptr.851", ptr %3, i32 0, i32 0
  %5 = call noundef ptr @_ZNKSt15__uniq_ptr_implIN5clang4ento12StoreManagerESt14default_deleteIS2_EE6_M_ptrEv(ptr noundef nonnull align 8 dereferenceable(8) %4) #15
  ret ptr %5
}

; Function Attrs: mustprogress nounwind uwtable
define linkonce_odr hidden void @_ZN4llvm6detail13PunnedPointerINS_12PointerUnionIJPKN5clang4TypeEPKNS3_8ExtQualsEEEEEC2El(ptr noundef nonnull align 8 dereferenceable(8) %0, i64 noundef %1) unnamed_addr #0 comdat align 2 {
  %3 = alloca ptr, align 8
  %4 = alloca i64, align 8
  store ptr %0, ptr %3, align 8
  store i64 %1, ptr %4, align 8
  %5 = load ptr, ptr %3, align 8
  %6 = load i64, ptr %4, align 8
  %7 = call noundef nonnull align 8 dereferenceable(8) ptr @_ZN4llvm6detail13PunnedPointerINS_12PointerUnionIJPKN5clang4TypeEPKNS3_8ExtQualsEEEEEaSEl(ptr noundef nonnull align 8 dereferenceable(8) %5, i64 noundef %6)
  ret void
}

; Function Attrs: mustprogress nounwind uwtable
define linkonce_odr hidden void @_ZN5clang4ento3loc12MemRegionValC2EPKNS0_9MemRegionE(ptr noundef nonnull align 8 dereferenceable(9) %0, ptr noundef %1) unnamed_addr #0 comdat align 2 {
  %3 = alloca ptr, align 8
  %4 = alloca ptr, align 8
  store ptr %0, ptr %3, align 8
  store ptr %1, ptr %4, align 8
  %5 = load ptr, ptr %3, align 8
  %6 = load ptr, ptr %4, align 8
  call void @_ZN5clang4ento3LocC2ENS0_4SVal8SValKindEPKv(ptr noundef nonnull align 8 dereferenceable(9) %5, i8 noundef zeroext 4, ptr noundef %6)
  ret void
}

; Function Attrs: mustprogress nounwind uwtable
define linkonce_odr hidden noundef ptr @_ZNK5clang4ento12ProgramState8getStoreEv(ptr noundef nonnull align 8 dereferenceable(48) %0) #0 comdat align 2 {
  %2 = alloca ptr, align 8
  store ptr %0, ptr %2, align 8
  %3 = load ptr, ptr %2, align 8
  %4 = getelementptr inbounds nuw %"class.clang::ento::ProgramState", ptr %3, i32 0, i32 3
  %5 = load ptr, ptr %4, align 8
  ret ptr %5
}

; Function Attrs: mustprogress nounwind uwtable
define linkonce_odr hidden noundef ptr @_ZNKSt10unique_ptrIN5clang4ento12StoreManagerESt14default_deleteIS2_EEptEv(ptr noundef nonnull align 8 dereferenceable(8) %0) #0 comdat align 2 {
  %2 = alloca ptr, align 8
  store ptr %0, ptr %2, align 8
  %3 = load ptr, ptr %2, align 8
  %4 = call noundef ptr @_ZNKSt10unique_ptrIN5clang4ento12StoreManagerESt14default_deleteIS2_EE3getEv(ptr noundef nonnull align 8 dereferenceable(8) %3) #15
  ret ptr %4
}

; Function Attrs: mustprogress nounwind uwtable
define linkonce_odr hidden noundef nonnull align 8 dereferenceable(288) ptr @_ZNK5clang4ento12ProgramState15getStateManagerEv(ptr noundef nonnull align 8 dereferenceable(48) %0) #0 comdat align 2 {
  %2 = alloca ptr, align 8
  store ptr %0, ptr %2, align 8
  %3 = load ptr, ptr %2, align 8
  %4 = getelementptr inbounds nuw %"class.clang::ento::ProgramState", ptr %3, i32 0, i32 1
  %5 = load ptr, ptr %4, align 8
  ret ptr %5
}

; Function Attrs: mustprogress nounwind uwtable
define linkonce_odr hidden void @_ZN4llvm14PointerIntPairINS_12PointerUnionIJPKN5clang4TypeEPKNS2_8ExtQualsEEEELj3EjNS_21PointerLikeTypeTraitsIS9_EENS_18PointerIntPairInfoIS9_Lj3ESB_EEEC2Ev(ptr noundef nonnull align 8 dereferenceable(8) %0) unnamed_addr #0 comdat align 2 {
  %2 = alloca ptr, align 8
  store ptr %0, ptr %2, align 8
  %3 = load ptr, ptr %2, align 8
  %4 = getelementptr inbounds nuw %"class.llvm::PointerIntPair.4", ptr %3, i32 0, i32 0
  call void @_ZN4llvm6detail13PunnedPointerINS_12PointerUnionIJPKN5clang4TypeEPKNS3_8ExtQualsEEEEEC2El(ptr noundef nonnull align 8 dereferenceable(8) %4, i64 noundef 0)
  ret void
}

; Function Attrs: mustprogress nounwind uwtable
define linkonce_odr hidden { ptr, i8 } @_ZNK5clang4ento12ProgramState7getSValEPKNS0_9MemRegionENS_8QualTypeE(ptr noundef nonnull align 8 dereferenceable(48) %0, ptr noundef %1, i64 %2) #0 comdat align 2 {
  %4 = alloca %"class.clang::ento::SVal", align 8
  %5 = alloca %"class.clang::QualType", align 8
  %6 = alloca ptr, align 8
  %7 = alloca ptr, align 8
  %8 = alloca %"class.clang::ento::Loc", align 8
  %9 = alloca %"class.clang::ento::loc::MemRegionVal", align 8
  %10 = alloca %"class.clang::QualType", align 8
  %11 = alloca { ptr, i8 }, align 8
  %12 = getelementptr inbounds nuw %"class.clang::QualType", ptr %5, i32 0, i32 0
  %13 = getelementptr inbounds nuw %"class.llvm::PointerIntPair.4", ptr %12, i32 0, i32 0
  %14 = getelementptr inbounds nuw %"struct.llvm::detail::PunnedPointer.5", ptr %13, i32 0, i32 0
  store i64 %2, ptr %14, align 8
  store ptr %0, ptr %6, align 8
  store ptr %1, ptr %7, align 8
  %15 = load ptr, ptr %6, align 8
  %16 = call noundef nonnull align 8 dereferenceable(288) ptr @_ZNK5clang4ento12ProgramState15getStateManagerEv(ptr noundef nonnull align 8 dereferenceable(48) %15)
  %17 = getelementptr inbounds nuw %"class.clang::ento::ProgramStateManager", ptr %16, i32 0, i32 2
  %18 = call noundef ptr @_ZNKSt10unique_ptrIN5clang4ento12StoreManagerESt14default_deleteIS2_EEptEv(ptr noundef nonnull align 8 dereferenceable(8) %17) #15
  %19 = call noundef ptr @_ZNK5clang4ento12ProgramState8getStoreEv(ptr noundef nonnull align 8 dereferenceable(48) %15)
  %20 = load ptr, ptr %7, align 8
  call void @_ZN5clang4ento3loc12MemRegionValC2EPKNS0_9MemRegionE(ptr noundef nonnull align 8 dereferenceable(9) %9, ptr noundef %20)
  call void @llvm.memcpy.p0.p0.i64(ptr align 8 %8, ptr align 8 %9, i64 16, i1 false)
  call void @llvm.memcpy.p0.p0.i64(ptr align 8 %10, ptr align 8 %5, i64 8, i1 false)
  %21 = getelementptr inbounds nuw { ptr, i8 }, ptr %8, i32 0, i32 0
  %22 = load ptr, ptr %21, align 8
  %23 = getelementptr inbounds nuw { ptr, i8 }, ptr %8, i32 0, i32 1
  %24 = load i8, ptr %23, align 8
  %25 = getelementptr inbounds nuw %"class.clang::QualType", ptr %10, i32 0, i32 0
  %26 = getelementptr inbounds nuw %"class.llvm::PointerIntPair.4", ptr %25, i32 0, i32 0
  %27 = getelementptr inbounds nuw %"struct.llvm::detail::PunnedPointer.5", ptr %26, i32 0, i32 0
  %28 = load i64, ptr %27, align 8
  %29 = load ptr, ptr %18, align 8
  %30 = getelementptr inbounds ptr, ptr %29, i64 2
  %31 = load ptr, ptr %30, align 8
  %32 = call { ptr, i8 } %31(ptr noundef nonnull align 8 dereferenceable(40) %18, ptr noundef %19, ptr %22, i8 %24, i64 %28)
  store { ptr, i8 } %32, ptr %11, align 8
  call void @llvm.memcpy.p0.p0.i64(ptr align 8 %4, ptr align 8 %11, i64 9, i1 false)
  %33 = load { ptr, i8 }, ptr %4, align 8
  ret { ptr, i8 } %33
}

; Function Attrs: mustprogress nounwind uwtable
define linkonce_odr hidden void @_ZN5clang8QualTypeC2Ev(ptr noundef nonnull align 8 dereferenceable(8) %0) unnamed_addr #0 comdat align 2 {
  %2 = alloca ptr, align 8
  store ptr %0, ptr %2, align 8
  %3 = load ptr, ptr %2, align 8
  %4 = getelementptr inbounds nuw %"class.clang::QualType", ptr %3, i32 0, i32 0
  call void @_ZN4llvm14PointerIntPairINS_12PointerUnionIJPKN5clang4TypeEPKNS2_8ExtQualsEEEELj3EjNS_21PointerLikeTypeTraitsIS9_EENS_18PointerIntPairInfoIS9_Lj3ESB_EEEC2Ev(ptr noundef nonnull align 8 dereferenceable(8) %4)
  ret void
}

; Function Attrs: mustprogress nounwind uwtable
define linkonce_odr hidden noundef ptr @_ZNK4llvm18IntrusiveRefCntPtrIKN5clang4ento12ProgramStateEEptEv(ptr noundef nonnull align 8 dereferenceable(8) %0) #0 comdat align 2 {
  %2 = alloca ptr, align 8
  store ptr %0, ptr %2, align 8
  %3 = load ptr, ptr %2, align 8
  %4 = getelementptr inbounds nuw %"class.llvm::IntrusiveRefCntPtr.822", ptr %3, i32 0, i32 0
  %5 = load ptr, ptr %4, align 8
  ret ptr %5
}

; Function Attrs: mustprogress nounwind uwtable
define linkonce_odr hidden noundef nonnull align 8 dereferenceable(8) ptr @_ZNK5clang4ento12ExplodedNode8getStateEv(ptr noundef nonnull align 8 dereferenceable(88) %0) #0 comdat align 2 {
  %2 = alloca ptr, align 8
  store ptr %0, ptr %2, align 8
  %3 = load ptr, ptr %2, align 8
  %4 = getelementptr inbounds nuw %"class.clang::ento::ExplodedNode", ptr %3, i32 0, i32 2
  ret ptr %4
}

; Function Attrs: mustprogress nounwind uwtable
define internal noundef zeroext i1 @_ZN12_GLOBAL__N_118NoStoreFuncVisitor25wasModifiedBeforeCallExitEPKN5clang4ento12ExplodedNodeES5_(ptr noundef nonnull align 8 dereferenceable(632) %0, ptr noundef %1, ptr noundef %2) unnamed_addr #0 align 2 {
  %4 = alloca ptr, align 8
  %5 = alloca ptr, align 8
  %6 = alloca ptr, align 8
  %7 = alloca %"class.clang::ento::SVal", align 8
  %8 = alloca %"class.clang::QualType", align 8
  %9 = alloca { ptr, i8 }, align 8
  store ptr %0, ptr %4, align 8
  store ptr %1, ptr %5, align 8
  store ptr %2, ptr %6, align 8
  %10 = load ptr, ptr %4, align 8
  %11 = getelementptr inbounds nuw %"class.(anonymous namespace)::NoStoreFuncVisitor", ptr %10, i32 0, i32 1
  %12 = load ptr, ptr %11, align 8
  %13 = load ptr, ptr %5, align 8
  %14 = load ptr, ptr %6, align 8
  %15 = call noundef nonnull align 8 dereferenceable(8) ptr @_ZNK5clang4ento12ExplodedNode8getStateEv(ptr noundef nonnull align 8 dereferenceable(88) %14)
  %16 = call noundef ptr @_ZNK4llvm18IntrusiveRefCntPtrIKN5clang4ento12ProgramStateEEptEv(ptr noundef nonnull align 8 dereferenceable(8) %15)
  %17 = getelementptr inbounds nuw %"class.(anonymous namespace)::NoStoreFuncVisitor", ptr %10, i32 0, i32 1
  %18 = load ptr, ptr %17, align 8
  call void @llvm.memset.p0.i64(ptr align 8 %8, i8 0, i64 8, i1 false)
  call void @_ZN5clang8QualTypeC2Ev(ptr noundef nonnull align 8 dereferenceable(8) %8)
  %19 = getelementptr inbounds nuw %"class.clang::QualType", ptr %8, i32 0, i32 0
  %20 = getelementptr inbounds nuw %"class.llvm::PointerIntPair.4", ptr %19, i32 0, i32 0
  %21 = getelementptr inbounds nuw %"struct.llvm::detail::PunnedPointer.5", ptr %20, i32 0, i32 0
  %22 = load i64, ptr %21, align 8
  %23 = call { ptr, i8 } @_ZNK5clang4ento12ProgramState7getSValEPKNS0_9MemRegionENS_8QualTypeE(ptr noundef nonnull align 8 dereferenceable(48) %16, ptr noundef %18, i64 %22)
  store { ptr, i8 } %23, ptr %9, align 8
  call void @llvm.memcpy.p0.p0.i64(ptr align 8 %7, ptr align 8 %9, i64 9, i1 false)
  %24 = getelementptr inbounds nuw { ptr, i8 }, ptr %7, i32 0, i32 0
  %25 = load ptr, ptr %24, align 8
  %26 = getelementptr inbounds nuw { ptr, i8 }, ptr %7, i32 0, i32 1
  %27 = load i8, ptr %26, align 8
  %28 = call noundef zeroext i1 @_ZL29wasRegionOfInterestModifiedAtPKN5clang4ento9SubRegionEPKNS0_12ExplodedNodeENS0_4SValE(ptr noundef %12, ptr noundef %13, ptr %25, i8 %27)
  ret i1 %28
}