; Function Attrs: mustprogress nounwind uwtable
define internal noundef zeroext i1 @_ZN12_GLOBAL__N_118NoStoreFuncVisitor25wasModifiedBeforeCallExitEPKN5clang4ento12ExplodedNodeES5_(ptr noundef nonnull readonly align 8 captures(none) dereferenceable(632) %0, ptr noundef readonly captures(none) %1, ptr noundef readonly captures(none) %2) unnamed_addr #0 align 2 {
  %4 = getelementptr inbounds nuw i8, ptr %0, i64 600
  %5 = load ptr, ptr %4, align 8
  %6 = getelementptr inbounds nuw i8, ptr %2, i64 56
  %7 = load ptr, ptr %6, align 8
  %8 = getelementptr inbounds nuw i8, ptr %7, i64 8
  %9 = load ptr, ptr %8, align 8
  %10 = getelementptr inbounds nuw i8, ptr %9, i64 96
  %11 = load ptr, ptr %10, align 8
  %12 = getelementptr inbounds nuw i8, ptr %7, i64 24
  %13 = load ptr, ptr %12, align 8
  %14 = load ptr, ptr %11, align 8
  %15 = getelementptr inbounds nuw i8, ptr %14, i64 16
  %16 = load ptr, ptr %15, align 8
  %17 = tail call { ptr, i8 } %16(ptr noundef nonnull align 8 dereferenceable(40) %11, ptr noundef %13, ptr %5, i8 4, i64 0) #22
  %.fca.0.extract = extractvalue { ptr, i8 } %17, 0
  %.fca.1.extract = extractvalue { ptr, i8 } %17, 1
  %18 = tail call fastcc noundef zeroext i1 @_ZL29wasRegionOfInterestModifiedAtPKN5clang4ento9SubRegionEPKNS0_12ExplodedNodeENS0_4SValE(ptr noundef %5, ptr noundef %1, ptr %.fca.0.extract, i8 %.fca.1.extract)
  ret i1 %18
}